target datalayout = "e-m:e-p270:32:32-p271:32:32-p272:64:64-i64:64-i128:128-f80:128-n8:16:32:64-S128"
target triple = "x86_64-pc-linux-gnu"

%struct._lv_label_t = type { %struct._lv_obj_t, ptr, [4 x i8], i32, %struct._lv_draw_label_hint_t, i32, i32, %struct.lv_point_t, %struct.lv_point_t, i8 }
%struct._lv_obj_t = type { ptr, ptr, ptr, ptr, ptr, %struct.lv_area_t, i32, i16, i16 }
%struct.lv_area_t = type { i32, i32, i32, i32 }
%struct._lv_draw_label_hint_t = type { i32, i32, i32 }
%struct.lv_point_t = type { i32, i32 }

; Function Attrs: nounwind uwtable
define void @lv_label_set_long_mode(ptr noundef %0, i32 noundef %1) #0 {
  %3 = alloca ptr, align 8
  %4 = alloca i32, align 4
  %5 = alloca ptr, align 8
  store ptr %0, ptr %3, align 8, !tbaa !3
  store i32 %1, ptr %4, align 4, !tbaa !21
  br label %6

6:                                                ; preds = %2
  br label %7

7:                                                ; preds = %6
  call void @llvm.lifetime.start.p0(i64 8, ptr %5) #6
  %8 = load ptr, ptr %3, align 8, !tbaa !3
  store ptr %8, ptr %5, align 8, !tbaa !3
  %9 = load ptr, ptr %3, align 8, !tbaa !3
  %10 = call zeroext i1 @lv_anim_delete(ptr noundef %9, ptr noundef @set_ofs_x_anim)
  %11 = load ptr, ptr %3, align 8, !tbaa !3
  %12 = call zeroext i1 @lv_anim_delete(ptr noundef %11, ptr noundef @set_ofs_y_anim)
  %13 = load ptr, ptr %5, align 8, !tbaa !3
  %14 = getelementptr inbounds nuw %struct._lv_label_t, ptr %13, i32 0, i32 8
  call void @lv_point_set(ptr noundef %14, i32 noundef 0, i32 noundef 0)
  %15 = load i32, ptr %4, align 4, !tbaa !21
  %16 = icmp eq i32 %15, 2
  br i1 %16, label %23, label %17

17:                                               ; preds = %7
  %18 = load i32, ptr %4, align 4, !tbaa !21
  %19 = icmp eq i32 %18, 3
  br i1 %19, label %23, label %20

20:                                               ; preds = %17
  %21 = load i32, ptr %4, align 4, !tbaa !21
  %22 = icmp eq i32 %21, 4
  br i1 %22, label %23, label %29

23:                                               ; preds = %20, %17, %7
  %24 = load ptr, ptr %5, align 8, !tbaa !3
  %25 = getelementptr inbounds nuw %struct._lv_label_t, ptr %24, i32 0, i32 9
  %26 = load i8, ptr %25, align 4
  %27 = and i8 %26, -33
  %28 = or i8 %27, 32
  store i8 %28, ptr %25, align 4
  br label %35

29:                                               ; preds = %20
  %30 = load ptr, ptr %5, align 8, !tbaa !3
  %31 = getelementptr inbounds nuw %struct._lv_label_t, ptr %30, i32 0, i32 9
  %32 = load i8, ptr %31, align 4
  %33 = and i8 %32, -33
  %34 = or i8 %33, 0
  store i8 %34, ptr %31, align 4
  br label %35

35:                                               ; preds = %29, %23
  %36 = load i32, ptr %4, align 4, !tbaa !21
  %37 = load ptr, ptr %5, align 8, !tbaa !3
  %38 = getelementptr inbounds nuw %struct._lv_label_t, ptr %37, i32 0, i32 9
  %39 = trunc i32 %36 to i8
  %40 = load i8, ptr %38, align 4
  %41 = and i8 %39, 7
  %42 = and i8 %40, -8
  %43 = or i8 %42, %41
  store i8 %43, ptr %38, align 4
  %44 = load ptr, ptr %3, align 8, !tbaa !3
  call void @lv_label_refr_text(ptr noundef %44)
  call void @llvm.lifetime.end.p0(i64 8, ptr %5) #6
  ret void
}