; Function Attrs: nounwind uwtable
define void @lv_label_set_long_mode(ptr noundef %0, i32 noundef %1) local_unnamed_addr #0 {
  %3 = tail call zeroext i1 @lv_anim_delete(ptr noundef %0, ptr noundef nonnull @set_ofs_x_anim) #7
  %4 = tail call zeroext i1 @lv_anim_delete(ptr noundef %0, ptr noundef nonnull @set_ofs_y_anim) #7
  %5 = getelementptr inbounds nuw i8, ptr %0, i64 108
  tail call void @lv_point_set(ptr noundef nonnull %5, i32 noundef 0, i32 noundef 0) #7
  %.off = add i32 %1, -2
  %switch = icmp ult i32 %.off, 3
  %6 = getelementptr inbounds nuw i8, ptr %0, i64 116
  %7 = load i8, ptr %6, align 4
  %8 = and i8 %7, -40
  %masksel = select i1 %switch, i8 32, i8 0
  %9 = or disjoint i8 %8, %masksel
  %10 = getelementptr inbounds nuw i8, ptr %0, i64 116
  %11 = trunc i32 %1 to i8
  %12 = and i8 %11, 7
  %13 = or disjoint i8 %9, %12
  store i8 %13, ptr %10, align 4
  tail call fastcc void @lv_label_refr_text(ptr noundef nonnull %0)
  ret void
}